; Function Attrs: nounwind uwtable
define void @png_set_sCAL(ptr noalias noundef %0, ptr noalias noundef %1, i32 noundef %2, double noundef %3, double noundef %4) local_unnamed_addr #2 {
  %6 = alloca [18 x i8], align 16
  %7 = alloca [18 x i8], align 16
  %8 = fcmp ugt double %3, 0.000000e+00
  br i1 %8, label %10, label %9

9:                                                ; preds = %5
  tail call void @png_warning(ptr noundef %0, ptr noundef nonnull @.str.27) #12
  br label %14

10:                                               ; preds = %5
  %11 = fcmp ugt double %4, 0.000000e+00
  br i1 %11, label %13, label %12

12:                                               ; preds = %10
  tail call void @png_warning(ptr noundef %0, ptr noundef nonnull @.str.28) #12
  br label %14

13:                                               ; preds = %10
  call void @png_ascii_from_fp(ptr noundef %0, ptr noundef nonnull %6, i64 noundef 18, double noundef %3, i32 noundef 5) #12
  call void @png_ascii_from_fp(ptr noundef %0, ptr noundef nonnull %7, i64 noundef 18, double noundef %4, i32 noundef 5) #12
  call void @png_set_sCAL_s(ptr noundef %0, ptr noundef %1, i32 noundef %2, ptr noundef nonnull %6, ptr noundef nonnull %7)
  br label %14

14:                                               ; preds = %12, %13, %9
  ret void
}